TN:
SF:/home/lanath/repo/blc/blc/protocolCaps.tpp
FN:6,_ZN3blc5tools12protocolCapsIiiEC2ERKS2_
FNDA:0,_ZN3blc5tools12protocolCapsIiiEC2ERKS2_
FN:12,_ZN3blc5tools12protocolCapsIiiEC2EOS2_
FNDA:0,_ZN3blc5tools12protocolCapsIiiEC2EOS2_
FN:16,_ZZN3blc5tools12protocolCapsIiiEC4EOS2_ENKUliE_clEi
FNDA:0,_ZZN3blc5tools12protocolCapsIiiEC4EOS2_ENKUliE_clEi
FN:20,_ZN3blc5tools12protocolCapsIiiE7setCodeERKi
FNDA:0,_ZN3blc5tools12protocolCapsIiiE7setCodeERKi
FN:25,_ZN3blc5tools12protocolCapsIiiE11setCallbackERKSt8functionIFiiEE
FNDA:0,_ZN3blc5tools12protocolCapsIiiE11setCallbackERKSt8functionIFiiEE
FN:30,_ZNK3blc5tools12protocolCapsIiiE7getCodeEv
FNDA:0,_ZNK3blc5tools12protocolCapsIiiE7getCodeEv
FN:36,_ZNK3blc5tools12protocolCapsIiiE11getCallbackEv
FNDA:0,_ZNK3blc5tools12protocolCapsIiiE11getCallbackEv
FN:42,_ZNK3blc5tools12protocolCapsIiiE5checkERKi
FNDA:0,_ZNK3blc5tools12protocolCapsIiiE5checkERKi
FN:48,_ZNK3blc5tools12protocolCapsIiiE8activateERKi
FNDA:0,_ZNK3blc5tools12protocolCapsIiiE8activateERKi
FN:54,_ZNK3blc5tools12protocolCapsIiiE14checkAndActiveERKiS4_
FNDA:0,_ZNK3blc5tools12protocolCapsIiiE14checkAndActiveERKiS4_
FN:62,_ZN3blc5tools12protocolCapsIiiEaSERKS2_
FNDA:0,_ZN3blc5tools12protocolCapsIiiEaSERKS2_
FN:69,_ZN3blc5tools12protocolCapsIiiEaSERKSt8functionIFiiEE
FNDA:0,_ZN3blc5tools12protocolCapsIiiEaSERKSt8functionIFiiEE
FN:75,_ZN3blc5tools12protocolCapsIiiEaSERKi
FNDA:0,_ZN3blc5tools12protocolCapsIiiEaSERKi
FN:87,_ZN3blc5tools12protocolCapsIiiElsERKi
FNDA:0,_ZN3blc5tools12protocolCapsIiiElsERKi
DA:6,0
DA:7,0
DA:8,0
DA:9,0
DA:12,0
DA:13,0
DA:14,0
DA:15,0
DA:16,0
DA:17,0
DA:20,0
DA:21,0
DA:22,0
DA:25,0
DA:26,0
DA:27,0
DA:30,0
DA:32,0
DA:36,0
DA:38,0
DA:42,0
DA:44,0
DA:48,0
DA:50,0
DA:54,0
DA:56,0
DA:57,0
DA:58,0
DA:62,0
DA:63,0
DA:64,0
DA:65,0
DA:69,0
DA:70,0
DA:71,0
DA:75,0
DA:76,0
DA:78,0
DA:87,0
DA:88,0
DA:89,0
end_of_record
SF:/home/lanath/repo/blc/blc/protocolCaps.hpp
FN:23,_ZN3blc5tools12protocolCapsIiiEC2Ev
FNDA:0,_ZN3blc5tools12protocolCapsIiiEC2Ev
FN:33,_ZN3blc5tools12protocolCapsIiiED2Ev
FNDA:0,_ZN3blc5tools12protocolCapsIiiED2Ev
DA:23,0
DA:33,0
end_of_record
TN:
SF:/home/lanath/repo/blc/blc/errorHandle.hpp
FN:32,_ZN3blc5error9exceptionD0Ev
FNDA:0,_ZN3blc5error9exceptionD0Ev
FN:32,_ZN3blc5error9exceptionD2Ev
FNDA:56,_ZN3blc5error9exceptionD2Ev
FN:35,_ZNK3blc5error9exception4whatEv
FNDA:42,_ZNK3blc5error9exception4whatEv
FN:38,_ZNK3blc5error9exception5whereB5cxx11Ev
FNDA:14,_ZNK3blc5error9exception5whereB5cxx11Ev
FN:41,_ZNK3blc5error9exception4whomB5cxx11Ev
FNDA:14,_ZNK3blc5error9exception4whomB5cxx11Ev
FN:44,_ZNK3blc5error9exception4lineEv
FNDA:14,_ZNK3blc5error9exception4lineEv
FN:47,_ZNK3blc5error9exception4whenEv
FNDA:14,_ZNK3blc5error9exception4whenEv
DA:32,0
DA:32,56
DA:35,42
DA:38,14
DA:41,14
DA:44,14
DA:47,14
end_of_record
TN:
SF:/home/lanath/repo/blc/blc/actor.hpp
FN:39,_ZN3blc5tools5actorI8testServEC2Ev
FNDA:14,_ZN3blc5tools5actorI8testServEC2Ev
FN:45,_ZN3blc5tools5actorI8testServE5startEv
FNDA:14,_ZN3blc5tools5actorI8testServE5startEv
DA:39,14
DA:45,14
DA:46,28
DA:47,14
DA:48,14
DA:49,14
end_of_record
SF:/home/lanath/repo/blc/blc/client.hpp
end_of_record
TN:
SF:/home/lanath/repo/blc/blc/protocolCaps.hpp
FN:23,_ZN3blc5tools12protocolCapsIiiEC2Ev
FNDA:56,_ZN3blc5tools12protocolCapsIiiEC2Ev
FN:33,_ZN3blc5tools12protocolCapsIiiED2Ev
FNDA:112,_ZN3blc5tools12protocolCapsIiiED2Ev
DA:23,56
DA:33,112
end_of_record
SF:/home/lanath/repo/blc/blc/protocolCaps.tpp
FN:6,_ZN3blc5tools12protocolCapsIiiEC2ERKS2_
FNDA:28,_ZN3blc5tools12protocolCapsIiiEC2ERKS2_
FN:12,_ZN3blc5tools12protocolCapsIiiEC2EOS2_
FNDA:28,_ZN3blc5tools12protocolCapsIiiEC2EOS2_
FN:16,_ZZN3blc5tools12protocolCapsIiiEC4EOS2_ENKUliE_clEi
FNDA:0,_ZZN3blc5tools12protocolCapsIiiEC4EOS2_ENKUliE_clEi
FN:20,_ZN3blc5tools12protocolCapsIiiE7setCodeERKi
FNDA:56,_ZN3blc5tools12protocolCapsIiiE7setCodeERKi
FN:25,_ZN3blc5tools12protocolCapsIiiE11setCallbackERKSt8functionIFiiEE
FNDA:56,_ZN3blc5tools12protocolCapsIiiE11setCallbackERKSt8functionIFiiEE
FN:30,_ZNK3blc5tools12protocolCapsIiiE7getCodeEv
FNDA:168,_ZNK3blc5tools12protocolCapsIiiE7getCodeEv
FN:36,_ZNK3blc5tools12protocolCapsIiiE11getCallbackEv
FNDA:84,_ZNK3blc5tools12protocolCapsIiiE11getCallbackEv
FN:42,_ZNK3blc5tools12protocolCapsIiiE5checkERKi
FNDA:224,_ZNK3blc5tools12protocolCapsIiiE5checkERKi
FN:48,_ZNK3blc5tools12protocolCapsIiiE8activateERKi
FNDA:168,_ZNK3blc5tools12protocolCapsIiiE8activateERKi
FN:54,_ZNK3blc5tools12protocolCapsIiiE14checkAndActiveERKiS4_
FNDA:112,_ZNK3blc5tools12protocolCapsIiiE14checkAndActiveERKiS4_
FN:62,_ZN3blc5tools12protocolCapsIiiEaSERKS2_
FNDA:28,_ZN3blc5tools12protocolCapsIiiEaSERKS2_
FN:69,_ZN3blc5tools12protocolCapsIiiEaSERKSt8functionIFiiEE
FNDA:28,_ZN3blc5tools12protocolCapsIiiEaSERKSt8functionIFiiEE
FN:75,_ZN3blc5tools12protocolCapsIiiEaSERKi
FNDA:28,_ZN3blc5tools12protocolCapsIiiEaSERKi
FN:87,_ZN3blc5tools12protocolCapsIiiElsERKi
FNDA:28,_ZN3blc5tools12protocolCapsIiiElsERKi
DA:6,28
DA:7,28
DA:8,28
DA:9,28
DA:12,28
DA:13,28
DA:14,28
DA:15,28
DA:16,28
DA:17,28
DA:20,56
DA:21,56
DA:22,56
DA:25,56
DA:26,56
DA:27,56
DA:30,168
DA:32,168
DA:36,84
DA:38,84
DA:42,224
DA:44,224
DA:48,168
DA:50,168
DA:54,112
DA:56,112
DA:57,112
DA:58,0
DA:62,28
DA:63,28
DA:64,28
DA:65,28
DA:69,28
DA:70,28
DA:71,28
DA:75,28
DA:76,28
DA:78,28
DA:87,28
DA:88,28
DA:89,28
end_of_record
TN:
SF:/home/lanath/repo/blc/blc/stream.hpp
FN:20,_ZN3blc6streamC2Ev
FNDA:140,_ZN3blc6streamC2Ev
DA:20,140
end_of_record
SF:/home/lanath/repo/blc/src/pipe.cpp
FN:17,_ZN3blc5tools4pipeC2Ev
FNDA:14,_ZN3blc5tools4pipeC2Ev
FN:26,_ZN3blc5tools4pipeC2Ebb
FNDA:14,_ZN3blc5tools4pipeC2Ebb
FN:35,_ZN3blc5tools4pipeC2ERKS1_
FNDA:14,_ZN3blc5tools4pipeC2ERKS1_
FN:45,_ZN3blc5tools4pipeC2ERKS1_b
FNDA:28,_ZN3blc5tools4pipeC2ERKS1_b
FN:55,_ZN3blc5tools4pipeC2ERKS1_bb
FNDA:14,_ZN3blc5tools4pipeC2ERKS1_bb
FN:66,_ZN3blc5tools4pipeD2Ev
FNDA:84,_ZN3blc5tools4pipeD2Ev
FN:69,_ZNK3blc5tools4pipe8getSlaveEv
FNDA:14,_ZNK3blc5tools4pipe8getSlaveEv
FN:73,_ZNK3blc5tools4pipe9getMasterEv
FNDA:14,_ZNK3blc5tools4pipe9getMasterEv
FN:77,_ZNK3blc5tools4pipe8getBlockEv
FNDA:70,_ZNK3blc5tools4pipe8getBlockEv
FN:81,_ZNK3blc5tools4pipe8getStateEv
FNDA:70,_ZNK3blc5tools4pipe8getStateEv
FN:85,_ZN3blc5tools4pipe5getInB5cxx11Ev
FNDA:70,_ZN3blc5tools4pipe5getInB5cxx11Ev
FN:89,_ZN3blc5tools4pipe6getOutB5cxx11Ev
FNDA:70,_ZN3blc5tools4pipe6getOutB5cxx11Ev
FN:93,_ZN3blc5tools4pipe8getInMutEv
FNDA:70,_ZN3blc5tools4pipe8getInMutEv
FN:97,_ZN3blc5tools4pipe9getOutMutEv
FNDA:70,_ZN3blc5tools4pipe9getOutMutEv
FN:101,_ZN3blc5tools4pipe9getClosedEv
FNDA:70,_ZN3blc5tools4pipe9getClosedEv
FN:106,_ZN3blc5tools4pipe8setBlockEb
FNDA:84,_ZN3blc5tools4pipe8setBlockEb
FN:110,_ZN3blc5tools4pipe11switchStateEv
FNDA:28,_ZN3blc5tools4pipe11switchStateEv
FN:115,_ZNK3blc5tools4pipe5writeERKNSt7__cxx1112basic_stringIcSt11char_traitsIcESaIcEEE
FNDA:112,_ZNK3blc5tools4pipe5writeERKNSt7__cxx1112basic_stringIcSt11char_traitsIcESaIcEEE
FN:126,_ZNK3blc5tools4pipe4readB5cxx11Ev
FNDA:182,_ZNK3blc5tools4pipe4readB5cxx11Ev
FN:138,_ZNK3blc5tools4pipe4readB5cxx11Ei
FNDA:28,_ZNK3blc5tools4pipe4readB5cxx11Ei
FN:142,_ZN3blc5tools4pipe5closeEv
FNDA:14,_ZN3blc5tools4pipe5closeEv
FN:158,_ZNK3blc5tools4pipe8readableEv
FNDA:98,_ZNK3blc5tools4pipe8readableEv
FN:173,_ZNK3blc5tools4pipe8writableEv
FNDA:84,_ZNK3blc5tools4pipe8writableEv
FN:188,_ZNK3blc5tools4pipe8isClosedEv
FNDA:392,_ZNK3blc5tools4pipe8isClosedEv
FN:194,_ZNK3blc5tools4pipe9waitWriteEi
FNDA:42,_ZNK3blc5tools4pipe9waitWriteEi
FN:202,_ZNK3blc5tools4pipe8waitReadEi
FNDA:28,_ZNK3blc5tools4pipe8waitReadEi
FN:210,_ZN3blc5tools4pipeaSERKS1_
FNDA:14,_ZN3blc5tools4pipeaSERKS1_
FN:221,_ZN3blc5tools4pipelsERKNSt7__cxx1112basic_stringIcSt11char_traitsIcESaIcEEE
FNDA:112,_ZN3blc5tools4pipelsERKNSt7__cxx1112basic_stringIcSt11char_traitsIcESaIcEEE
FN:226,_ZN3blc5tools4pipersERNSt7__cxx1112basic_stringIcSt11char_traitsIcESaIcEEE
FNDA:14,_ZN3blc5tools4pipersERNSt7__cxx1112basic_stringIcSt11char_traitsIcESaIcEEE
FN:231,_ZNK3blc5tools4pipe7push_onEPNSt7__cxx1112basic_stringIcSt11char_traitsIcESaIcEEERKS7_PSt5mutex
FNDA:98,_ZNK3blc5tools4pipe7push_onEPNSt7__cxx1112basic_stringIcSt11char_traitsIcESaIcEEERKS7_PSt5mutex
FN:249,_ZNK3blc5tools4pipe8push_outEPNSt7__cxx1112basic_stringIcSt11char_traitsIcESaIcEEES8_PSt5mutex
FNDA:182,_ZNK3blc5tools4pipe8push_outEPNSt7__cxx1112basic_stringIcSt11char_traitsIcESaIcEEES8_PSt5mutex
FN:274,_ZNK3blc5tools4pipe11check_blockEPSt5mutex
FNDA:0,_ZNK3blc5tools4pipe11check_blockEPSt5mutex
DA:17,14
DA:18,14
DA:19,14
DA:20,14
DA:21,14
DA:22,14
DA:23,14
DA:24,14
DA:26,14
DA:27,14
DA:28,14
DA:29,14
DA:30,14
DA:31,14
DA:32,14
DA:33,14
DA:35,14
DA:36,14
DA:37,14
DA:38,14
DA:39,14
DA:40,14
DA:41,14
DA:42,14
DA:43,14
DA:45,28
DA:46,28
DA:47,28
DA:48,28
DA:49,28
DA:50,28
DA:51,28
DA:52,28
DA:53,28
DA:55,14
DA:56,14
DA:57,14
DA:58,14
DA:59,14
DA:60,14
DA:61,14
DA:62,14
DA:63,14
DA:66,84
DA:67,84
DA:69,14
DA:70,14
DA:73,14
DA:74,14
DA:77,70
DA:78,70
DA:81,70
DA:82,70
DA:85,70
DA:86,70
DA:89,70
DA:90,70
DA:93,70
DA:94,70
DA:97,70
DA:98,70
DA:101,70
DA:102,70
DA:106,84
DA:107,84
DA:108,84
DA:110,28
DA:111,28
DA:112,28
DA:115,112
DA:116,112
DA:117,14
DA:118,98
DA:119,28
DA:120,98
DA:121,84
DA:123,14
DA:126,182
DA:127,364
DA:129,182
DA:130,14
DA:131,182
DA:132,28
DA:134,154
DA:135,364
DA:138,28
DA:139,28
DA:142,14
DA:143,14
DA:144,14
DA:145,14
DA:146,14
DA:147,14
DA:148,14
DA:149,14
DA:150,14
DA:151,14
DA:152,14
DA:153,14
DA:154,14
DA:155,14
DA:156,14
DA:158,98
DA:159,98
DA:160,14
DA:161,84
DA:162,14
DA:163,70
DA:164,28
DA:165,14
DA:167,42
DA:168,28
DA:170,28
DA:173,84
DA:174,84
DA:175,14
DA:176,70
DA:177,14
DA:178,56
DA:179,42
DA:180,42
DA:182,14
DA:183,14
DA:185,0
DA:188,392
DA:189,392
DA:190,0
DA:191,392
DA:194,42
DA:195,42
DA:196,14
DA:197,28
DA:198,0
DA:202,28
DA:203,28
DA:204,14
DA:205,14
DA:206,0
DA:210,14
DA:211,14
DA:212,14
DA:213,14
DA:214,14
DA:215,14
DA:216,14
DA:217,14
DA:218,14
DA:221,112
DA:222,112
DA:223,112
DA:226,14
DA:227,14
DA:228,14
DA:231,98
DA:232,98
DA:233,0
DA:234,98
DA:235,0
DA:236,98
DA:237,70
DA:238,0
DA:240,28
DA:242,98
DA:243,98
DA:244,98
DA:245,98
DA:249,182
DA:252,182
DA:253,0
DA:254,182
DA:255,14
DA:256,168
DA:257,154
DA:258,0
DA:260,14
DA:262,168
DA:263,560
DA:264,448
DA:265,56
DA:266,392
DA:267,392
DA:269,168
DA:270,168
DA:271,168
DA:274,0
DA:275,0
DA:276,0
DA:277,0
DA:278,0
end_of_record
TN:
SF:/home/lanath/repo/blc/blc/errorHandle.hpp
FN:32,_ZN3blc5error9exceptionD0Ev
FNDA:0,_ZN3blc5error9exceptionD0Ev
FN:32,_ZN3blc5error9exceptionD2Ev
FNDA:0,_ZN3blc5error9exceptionD2Ev
FN:35,_ZNK3blc5error9exception4whatEv
FNDA:0,_ZNK3blc5error9exception4whatEv
FN:38,_ZNK3blc5error9exception5whereB5cxx11Ev
FNDA:0,_ZNK3blc5error9exception5whereB5cxx11Ev
FN:41,_ZNK3blc5error9exception4whomB5cxx11Ev
FNDA:0,_ZNK3blc5error9exception4whomB5cxx11Ev
FN:44,_ZNK3blc5error9exception4lineEv
FNDA:0,_ZNK3blc5error9exception4lineEv
FN:47,_ZNK3blc5error9exception4whenEv
FNDA:0,_ZNK3blc5error9exception4whenEv
DA:32,0
DA:32,0
DA:35,0
DA:38,0
DA:41,0
DA:44,0
DA:47,0
end_of_record
SF:/home/lanath/repo/blc/blc/stream.hpp
FN:20,_ZN3blc6streamC2Ev
FNDA:0,_ZN3blc6streamC2Ev
DA:20,0
end_of_record
SF:/home/lanath/repo/blc/src/VFiles.cpp
FN:15,_ZN3blc5tools6VFilesC2ERKNSt7__cxx1112basic_stringIcSt11char_traitsIcESaIcEEE
FNDA:0,_ZN3blc5tools6VFilesC2ERKNSt7__cxx1112basic_stringIcSt11char_traitsIcESaIcEEE
FN:20,_ZN3blc5tools6VFilesC2EOS1_
FNDA:0,_ZN3blc5tools6VFilesC2EOS1_
FN:26,_ZN3blc5tools6VFilesD2Ev
FNDA:0,_ZN3blc5tools6VFilesD2Ev
FN:30,_ZNK3blc5tools6VFiles5writeERKNSt7__cxx1112basic_stringIcSt11char_traitsIcESaIcEEE
FNDA:0,_ZNK3blc5tools6VFiles5writeERKNSt7__cxx1112basic_stringIcSt11char_traitsIcESaIcEEE
FN:43,_ZNK3blc5tools6VFiles4readB5cxx11Ev
FNDA:0,_ZNK3blc5tools6VFiles4readB5cxx11Ev
FN:57,_ZNK3blc5tools6VFiles4readB5cxx11Ei
FNDA:0,_ZNK3blc5tools6VFiles4readB5cxx11Ei
FN:73,_ZN3blc5tools6VFiles5closeEv
FNDA:0,_ZN3blc5tools6VFiles5closeEv
FN:77,_ZN3blc5tools6VFiles4openEv
FNDA:0,_ZN3blc5tools6VFiles4openEv
FN:82,_ZNK3blc5tools6VFiles8readableEv
FNDA:0,_ZNK3blc5tools6VFiles8readableEv
FN:89,_ZNK3blc5tools6VFiles8writableEv
FNDA:0,_ZNK3blc5tools6VFiles8writableEv
FN:96,_ZNK3blc5tools6VFiles8isClosedEv
FNDA:0,_ZNK3blc5tools6VFiles8isClosedEv
FN:100,_ZN3blc5tools6VFiles7refreshEv
FNDA:0,_ZN3blc5tools6VFiles7refreshEv
FN:117,_ZN3blc5tools6VFiles6unloadEv
FNDA:0,_ZN3blc5tools6VFiles6unloadEv
FN:122,_ZN3blc5tools6VFiles5alignEv
FNDA:0,_ZN3blc5tools6VFiles5alignEv
FN:129,_ZNK3blc5tools6VFiles5tellgEv
FNDA:0,_ZNK3blc5tools6VFiles5tellgEv
FN:133,_ZN3blc5tools6VFiles5seekgEi
FNDA:0,_ZN3blc5tools6VFiles5seekgEi
FN:141,_ZN3blc5tools6VFiles5seekgEiNS1_7seekDirE
FNDA:0,_ZN3blc5tools6VFiles5seekgEiNS1_7seekDirE
FN:168,_ZNK3blc5tools6VFiles6gCountEv
FNDA:0,_ZNK3blc5tools6VFiles6gCountEv
DA:15,0
DA:16,0
DA:17,0
DA:18,0
DA:20,0
DA:21,0
DA:22,0
DA:23,0
DA:24,0
DA:26,0
DA:27,0
DA:28,0
DA:30,0
DA:31,0
DA:32,0
DA:33,0
DA:34,0
DA:36,0
DA:39,0
DA:41,0
DA:43,0
DA:44,0
DA:45,0
DA:46,0
DA:47,0
DA:48,0
DA:50,0
DA:53,0
DA:57,0
DA:58,0
DA:59,0
DA:60,0
DA:61,0
DA:62,0
DA:63,0
DA:64,0
DA:66,0
DA:69,0
DA:73,0
DA:74,0
DA:75,0
DA:77,0
DA:78,0
DA:79,0
DA:80,0
DA:82,0
DA:83,0
DA:84,0
DA:86,0
DA:89,0
DA:90,0
DA:91,0
DA:93,0
DA:96,0
DA:97,0
DA:100,0
DA:101,0
DA:102,0
DA:103,0
DA:104,0
DA:105,0
DA:107,0
DA:108,0
DA:109,0
DA:110,0
DA:111,0
DA:113,0
DA:115,0
DA:117,0
DA:118,0
DA:119,0
DA:120,0
DA:122,0
DA:123,0
DA:124,0
DA:126,0
DA:127,0
DA:129,0
DA:130,0
DA:133,0
DA:134,0
DA:135,0
DA:137,0
DA:138,0
DA:141,0
DA:142,0
DA:143,0
DA:144,0
DA:145,0
DA:146,0
DA:147,0
DA:148,0
DA:149,0
DA:150,0
DA:151,0
DA:152,0
DA:153,0
DA:155,0
DA:156,0
DA:157,0
DA:158,0
DA:159,0
DA:160,0
DA:162,0
DA:164,0
DA:166,0
DA:168,0
DA:169,0
end_of_record
TN:
SF:/home/lanath/repo/blc/blc/serializable.hpp
FN:23,_ZN3blc5tools12serializableC2Ev
FNDA:0,_ZN3blc5tools12serializableC2Ev
DA:23,0
end_of_record
SF:/home/lanath/repo/blc/src/float.cpp
FN:16,_ZN3blc4math5FloatC2Ev
FNDA:0,_ZN3blc4math5FloatC2Ev
FN:19,_ZN3blc4math5FloatC2Ed
FNDA:0,_ZN3blc4math5FloatC2Ed
FN:35,_ZN3blc4math5FloatC2Edi
FNDA:0,_ZN3blc4math5FloatC2Edi
FN:51,_ZN3blc4math5FloatC2ERKS1_
FNDA:0,_ZN3blc4math5FloatC2ERKS1_
FN:54,_ZN3blc4math5FloatC2EOS1_
FNDA:0,_ZN3blc4math5FloatC2EOS1_
FN:59,_ZN3blc4math5FloataSEd
FNDA:0,_ZN3blc4math5FloataSEd
FN:79,_ZN3blc4math5FloataSERKS1_
FNDA:0,_ZN3blc4math5FloataSERKS1_
FN:85,_ZN3blc4math5FloataSEOS1_
FNDA:0,_ZN3blc4math5FloataSEOS1_
FN:94,_ZN3blc4math5FloatplEd
FNDA:0,_ZN3blc4math5FloatplEd
FN:101,_ZN3blc4math5FloatplERKS1_
FNDA:0,_ZN3blc4math5FloatplERKS1_
FN:118,_ZN3blc4math5FloatmiEd
FNDA:0,_ZN3blc4math5FloatmiEd
FN:125,_ZN3blc4math5FloatmiERKS1_
FNDA:0,_ZN3blc4math5FloatmiERKS1_
FN:142,_ZN3blc4math5FloatmlEd
FNDA:0,_ZN3blc4math5FloatmlEd
FN:149,_ZN3blc4math5FloatmlERKS1_
FNDA:0,_ZN3blc4math5FloatmlERKS1_
FN:166,_ZN3blc4math5FloatdvEd
FNDA:0,_ZN3blc4math5FloatdvEd
FN:173,_ZN3blc4math5FloatdvERKS1_
FNDA:0,_ZN3blc4math5FloatdvERKS1_
FN:190,_ZN3blc4math5FloateqEd
FNDA:0,_ZN3blc4math5FloateqEd
FN:196,_ZN3blc4math5FloateqERKS1_
FNDA:0,_ZN3blc4math5FloateqERKS1_
FN:204,_ZN3blc4math5FloatgtEd
FNDA:0,_ZN3blc4math5FloatgtEd
FN:210,_ZN3blc4math5FloatgtERKS1_
FNDA:0,_ZN3blc4math5FloatgtERKS1_
FN:218,_ZN3blc4math5FloatltEd
FNDA:0,_ZN3blc4math5FloatltEd
FN:224,_ZN3blc4math5FloatltERKS1_
FNDA:0,_ZN3blc4math5FloatltERKS1_
FN:232,_ZN3blc4math5FloatgeEd
FNDA:0,_ZN3blc4math5FloatgeEd
FN:238,_ZN3blc4math5FloatgeERKS1_
FNDA:0,_ZN3blc4math5FloatgeERKS1_
FN:246,_ZN3blc4math5FloatleEd
FNDA:0,_ZN3blc4math5FloatleEd
FN:252,_ZN3blc4math5FloatleERKS1_
FNDA:0,_ZN3blc4math5FloatleERKS1_
FN:260,_ZNK3blc4math5FloatclEv
FNDA:0,_ZNK3blc4math5FloatclEv
FN:264,_ZNK3blc4math5Float5getNbEv
FNDA:0,_ZNK3blc4math5Float5getNbEv
FN:268,_ZN3blc4math5Float5setNbEd
FNDA:0,_ZN3blc4math5Float5setNbEd
FN:272,_ZNK3blc4math5Float4getEEv
FNDA:0,_ZNK3blc4math5Float4getEEv
FN:276,_ZN3blc4math5Float4setEEi
FNDA:0,_ZN3blc4math5Float4setEEi
FN:280,_ZNK3blc4math5Float9calculateEv
FNDA:0,_ZNK3blc4math5Float9calculateEv
FN:296,_ZN3blc4math5Float5alignEv
FNDA:0,_ZN3blc4math5Float5alignEv
FN:310,_ZN3blc4math5Float5alignEi
FNDA:0,_ZN3blc4math5Float5alignEi
FN:326,_ZNK3blc4math5Float9serializeB5cxx11Ev
FNDA:0,_ZNK3blc4math5Float9serializeB5cxx11Ev
FN:330,_ZN3blc4math5Float11unserializeERKNSt7__cxx1112basic_stringIcSt11char_traitsIcESaIcEEE
FNDA:0,_ZN3blc4math5Float11unserializeERKNSt7__cxx1112basic_stringIcSt11char_traitsIcESaIcEEE
DA:16,0
DA:17,0
DA:19,0
DA:20,0
DA:21,0
DA:22,0
DA:23,0
DA:24,0
DA:25,0
DA:28,0
DA:29,0
DA:30,0
DA:35,0
DA:36,0
DA:37,0
DA:38,0
DA:39,0
DA:40,0
DA:41,0
DA:44,0
DA:45,0
DA:46,0
DA:51,0
DA:52,0
DA:54,0
DA:55,0
DA:56,0
DA:57,0
DA:59,0
DA:60,0
DA:61,0
DA:63,0
DA:64,0
DA:65,0
DA:66,0
DA:67,0
DA:68,0
DA:71,0
DA:72,0
DA:73,0
DA:76,0
DA:79,0
DA:80,0
DA:81,0
DA:82,0
DA:85,0
DA:86,0
DA:87,0
DA:89,0
DA:90,0
DA:91,0
DA:94,0
DA:95,0
DA:97,0
DA:98,0
DA:101,0
DA:102,0
DA:103,0
DA:105,0
DA:106,0
DA:107,0
DA:108,0
DA:110,0
DA:111,0
DA:114,0
DA:115,0
DA:118,0
DA:119,0
DA:121,0
DA:122,0
DA:125,0
DA:126,0
DA:127,0
DA:129,0
DA:130,0
DA:131,0
DA:132,0
DA:134,0
DA:135,0
DA:138,0
DA:139,0
DA:142,0
DA:143,0
DA:145,0
DA:146,0
DA:149,0
DA:150,0
DA:151,0
DA:153,0
DA:154,0
DA:155,0
DA:156,0
DA:158,0
DA:159,0
DA:162,0
DA:163,0
DA:166,0
DA:167,0
DA:169,0
DA:170,0
DA:173,0
DA:174,0
DA:175,0
DA:177,0
DA:178,0
DA:179,0
DA:180,0
DA:182,0
DA:183,0
DA:186,0
DA:187,0
DA:190,0
DA:191,0
DA:192,0
DA:193,0
DA:196,0
DA:197,0
DA:198,0
DA:199,0
DA:200,0
DA:201,0
DA:204,0
DA:205,0
DA:206,0
DA:207,0
DA:210,0
DA:211,0
DA:212,0
DA:213,0
DA:214,0
DA:215,0
DA:218,0
DA:219,0
DA:220,0
DA:221,0
DA:224,0
DA:225,0
DA:226,0
DA:227,0
DA:228,0
DA:229,0
DA:232,0
DA:233,0
DA:234,0
DA:235,0
DA:238,0
DA:239,0
DA:240,0
DA:241,0
DA:242,0
DA:243,0
DA:246,0
DA:247,0
DA:248,0
DA:249,0
DA:252,0
DA:253,0
DA:254,0
DA:255,0
DA:256,0
DA:257,0
DA:260,0
DA:261,0
DA:264,0
DA:265,0
DA:268,0
DA:269,0
DA:270,0
DA:272,0
DA:273,0
DA:276,0
DA:277,0
DA:278,0
DA:280,0
DA:281,0
DA:282,0
DA:284,0
DA:285,0
DA:286,0
DA:287,0
DA:289,0
DA:290,0
DA:293,0
DA:296,0
DA:297,0
DA:298,0
DA:299,0
DA:300,0
DA:303,0
DA:304,0
DA:305,0
DA:308,0
DA:310,0
DA:311,0
DA:312,0
DA:313,0
DA:314,0
DA:315,0
DA:318,0
DA:319,0
DA:320,0
DA:321,0
DA:324,0
DA:326,0
DA:327,0
DA:330,0
DA:331,0
end_of_record
TN:
SF:/home/lanath/repo/blc/blc/errorHandle.hpp
FN:32,_ZN3blc5error9exceptionD0Ev
FNDA:0,_ZN3blc5error9exceptionD0Ev
FN:32,_ZN3blc5error9exceptionD2Ev
FNDA:0,_ZN3blc5error9exceptionD2Ev
FN:35,_ZNK3blc5error9exception4whatEv
FNDA:0,_ZNK3blc5error9exception4whatEv
FN:38,_ZNK3blc5error9exception5whereB5cxx11Ev
FNDA:0,_ZNK3blc5error9exception5whereB5cxx11Ev
FN:41,_ZNK3blc5error9exception4whomB5cxx11Ev
FNDA:0,_ZNK3blc5error9exception4whomB5cxx11Ev
FN:44,_ZNK3blc5error9exception4lineEv
FNDA:0,_ZNK3blc5error9exception4lineEv
FN:47,_ZNK3blc5error9exception4whenEv
FNDA:0,_ZNK3blc5error9exception4whenEv
DA:32,0
DA:32,0
DA:35,0
DA:38,0
DA:41,0
DA:44,0
DA:47,0
end_of_record
SF:/home/lanath/repo/blc/src/server.cpp
FN:40,_ZN3blc7network6ServerC2Ejjbii
FNDA:28,_ZN3blc7network6ServerC2Ejjbii
FN:40,_ZN3blc7network6ServerC1Ejjbii
FNDA:0,_ZN3blc7network6ServerC1Ejjbii
FN:65,_ZN3blc7network6ServerD2Ev
FNDA:28,_ZN3blc7network6ServerD2Ev
FN:65,_ZN3blc7network6ServerD1Ev
FNDA:0,_ZN3blc7network6ServerD1Ev
FN:69,_ZN3blc7network6Server12setMaxClientEj
FNDA:0,_ZN3blc7network6Server12setMaxClientEj
FN:73,_ZNK3blc7network6Server12getMaxClientEv
FNDA:0,_ZNK3blc7network6Server12getMaxClientEv
FN:77,_ZNK3blc7network6Server15getOpenedClientEv
FNDA:0,_ZNK3blc7network6Server15getOpenedClientEv
FN:81,_ZNK3blc7network6Server7getSockEv
FNDA:42,_ZNK3blc7network6Server7getSockEv
FN:85,_ZNK3blc7network6Server7getPortEv
FNDA:0,_ZNK3blc7network6Server7getPortEv
FN:89,_ZN3blc7network6Server6listenEv
FNDA:42,_ZN3blc7network6Server6listenEv
FN:93,_ZN3blc7network6Server6handleESt8functionIFvi8sockaddriEE
FNDA:0,_ZN3blc7network6Server6handleESt8functionIFvi8sockaddriEE
FN:99,_ZN3blc7network6Server4stopEv
FNDA:0,_ZN3blc7network6Server4stopEv
FN:105,_ZN3blc7network6Server6resumeEv
FNDA:0,_ZN3blc7network6Server6resumeEv
FN:111,_ZN3blc7network6Server4waitEj
FNDA:0,_ZN3blc7network6Server4waitEj
FN:117,_ZN3blc7network6Server4killEv
FNDA:14,_ZN3blc7network6Server4killEv
FN:123,_ZN3blc7network6Server6acceptEP8sockaddr
FNDA:14,_ZN3blc7network6Server6acceptEP8sockaddr
FN:129,_ZN3blc7network6Server5closeEv
FNDA:28,_ZN3blc7network6Server5closeEv
DA:40,0
DA:49,0
DA:50,0
DA:51,0
DA:52,0
DA:54,0
DA:55,0
DA:57,0
DA:58,0
DA:59,0
DA:60,0
DA:61,0
DA:62,0
DA:63,0
DA:40,28
DA:49,28
DA:50,28
DA:51,28
DA:52,0
DA:54,0
DA:55,0
DA:57,28
DA:58,28
DA:59,28
DA:60,28
DA:61,0
DA:62,28
DA:63,28
DA:65,0
DA:66,0
DA:67,0
DA:65,28
DA:66,28
DA:67,28
DA:69,0
DA:70,0
DA:71,0
DA:73,0
DA:74,0
DA:77,0
DA:78,0
DA:81,42
DA:82,42
DA:85,0
DA:86,0
DA:89,42
DA:90,42
DA:91,42
DA:93,0
DA:94,0
DA:95,0
DA:96,0
DA:97,0
DA:99,0
DA:100,0
DA:101,0
DA:102,0
DA:103,0
DA:105,0
DA:106,0
DA:107,0
DA:108,0
DA:109,0
DA:111,0
DA:112,0
DA:113,0
DA:114,0
DA:115,0
DA:117,14
DA:118,14
DA:119,14
DA:120,14
DA:121,14
DA:123,14
DA:124,14
DA:126,28
DA:129,28
DA:130,28
DA:131,28
end_of_record
TN:
SF:/home/lanath/repo/blc/src/regex.cpp
FN:15,_ZN3blc5tools5regexERKNSt7__cxx1112basic_stringIcSt11char_traitsIcESaIcEEES8_
FNDA:0,_ZN3blc5tools5regexERKNSt7__cxx1112basic_stringIcSt11char_traitsIcESaIcEEES8_
DA:15,0
DA:16,0
DA:17,0
DA:19,0
DA:20,0
DA:21,0
DA:22,0
DA:23,0
DA:24,0
DA:25,0
DA:26,0
DA:27,0
DA:28,0
DA:29,0
DA:30,0
DA:31,0
DA:33,0
DA:35,0
DA:36,0
DA:37,0
end_of_record
TN:
SF:/home/lanath/repo/blc/src/client2way.cpp
FN:14,_ZN3blc7network10client2wayC2Ev
FNDA:0,_ZN3blc7network10client2wayC2Ev
FN:17,_ZN3blc7network10client2wayC2ENSt7__cxx1112basic_stringIcSt11char_traitsIcESaIcEEEibii
FNDA:0,_ZN3blc7network10client2wayC2ENSt7__cxx1112basic_stringIcSt11char_traitsIcESaIcEEEibii
FN:21,_ZN3blc7network10client2wayD2Ev
FNDA:0,_ZN3blc7network10client2wayD2Ev
FN:24,_ZN3blc7network10client2way7getCommEv
FNDA:0,_ZN3blc7network10client2way7getCommEv
FN:28,_ZN3blc7network10client2way7getDataEv
FNDA:0,_ZN3blc7network10client2way7getDataEv
FN:32,_ZNK3blc7network10client2way10getAddressB5cxx11Ev
FNDA:0,_ZNK3blc7network10client2way10getAddressB5cxx11Ev
FN:36,_ZNK3blc7network10client2way7getPortEv
FNDA:0,_ZNK3blc7network10client2way7getPortEv
FN:40,_ZNK3blc7network10client2way8getBlockEv
FNDA:0,_ZNK3blc7network10client2way8getBlockEv
FN:44,_ZNK3blc7network10client2way7getModeEv
FNDA:0,_ZNK3blc7network10client2way7getModeEv
FN:48,_ZNK3blc7network10client2way7getTypeEv
FNDA:0,_ZNK3blc7network10client2way7getTypeEv
FN:52,_ZNK3blc7network10client2way14getAddressDataB5cxx11Ev
FNDA:0,_ZNK3blc7network10client2way14getAddressDataB5cxx11Ev
FN:56,_ZNK3blc7network10client2way11getPortDataEv
FNDA:0,_ZNK3blc7network10client2way11getPortDataEv
FN:60,_ZNK3blc7network10client2way12getBlockDataEv
FNDA:0,_ZNK3blc7network10client2way12getBlockDataEv
FN:64,_ZNK3blc7network10client2way11getModeDataEv
FNDA:0,_ZNK3blc7network10client2way11getModeDataEv
FN:68,_ZNK3blc7network10client2way11getTypeDataEv
FNDA:0,_ZNK3blc7network10client2way11getTypeDataEv
FN:72,_ZN3blc7network10client2way10setAddressERKNSt7__cxx1112basic_stringIcSt11char_traitsIcESaIcEEE
FNDA:0,_ZN3blc7network10client2way10setAddressERKNSt7__cxx1112basic_stringIcSt11char_traitsIcESaIcEEE
FN:76,_ZN3blc7network10client2way7setPortEi
FNDA:0,_ZN3blc7network10client2way7setPortEi
FN:80,_ZN3blc7network10client2way8setBlockEb
FNDA:0,_ZN3blc7network10client2way8setBlockEb
FN:84,_ZN3blc7network10client2way7setModeEi
FNDA:0,_ZN3blc7network10client2way7setModeEi
FN:88,_ZN3blc7network10client2way7setTypeEi
FNDA:0,_ZN3blc7network10client2way7setTypeEi
FN:92,_ZN3blc7network10client2way14setAddressDataERKNSt7__cxx1112basic_stringIcSt11char_traitsIcESaIcEEE
FNDA:0,_ZN3blc7network10client2way14setAddressDataERKNSt7__cxx1112basic_stringIcSt11char_traitsIcESaIcEEE
FN:96,_ZN3blc7network10client2way11setPortDataEi
FNDA:0,_ZN3blc7network10client2way11setPortDataEi
FN:100,_ZN3blc7network10client2way12setBlockDataEb
FNDA:0,_ZN3blc7network10client2way12setBlockDataEb
FN:104,_ZN3blc7network10client2way11setModeDataEi
FNDA:0,_ZN3blc7network10client2way11setModeDataEi
FN:108,_ZN3blc7network10client2way11setTypeDataEi
FNDA:0,_ZN3blc7network10client2way11setTypeDataEi
FN:112,_ZNK3blc7network10client2way5writeERKNSt7__cxx1112basic_stringIcSt11char_traitsIcESaIcEEE
FNDA:0,_ZNK3blc7network10client2way5writeERKNSt7__cxx1112basic_stringIcSt11char_traitsIcESaIcEEE
FN:116,_ZNK3blc7network10client2way9writeDataERKNSt7__cxx1112basic_stringIcSt11char_traitsIcESaIcEEE
FNDA:0,_ZNK3blc7network10client2way9writeDataERKNSt7__cxx1112basic_stringIcSt11char_traitsIcESaIcEEE
FN:120,_ZNK3blc7network10client2way4readB5cxx11Ev
FNDA:0,_ZNK3blc7network10client2way4readB5cxx11Ev
FN:124,_ZNK3blc7network10client2way8readDataB5cxx11Ev
FNDA:0,_ZNK3blc7network10client2way8readDataB5cxx11Ev
FN:128,_ZN3blc7network10client2way9closeCommEv
FNDA:0,_ZN3blc7network10client2way9closeCommEv
FN:132,_ZN3blc7network10client2way9closeDataEv
FNDA:0,_ZN3blc7network10client2way9closeDataEv
FN:136,_ZN3blc7network10client2way5closeEv
FNDA:0,_ZN3blc7network10client2way5closeEv
FN:141,_ZN3blc7network10client2way8openCommEv
FNDA:0,_ZN3blc7network10client2way8openCommEv
FN:145,_ZN3blc7network10client2way8openDataEv
FNDA:0,_ZN3blc7network10client2way8openDataEv
FN:149,_ZN3blc7network10client2way4openEv
FNDA:0,_ZN3blc7network10client2way4openEv
FN:154,_ZNK3blc7network10client2way12readableCommEv
FNDA:0,_ZNK3blc7network10client2way12readableCommEv
FN:158,_ZNK3blc7network10client2way12readableDataEv
FNDA:0,_ZNK3blc7network10client2way12readableDataEv
FN:162,_ZNK3blc7network10client2way13writeableCommEv
FNDA:0,_ZNK3blc7network10client2way13writeableCommEv
FN:166,_ZNK3blc7network10client2way13writeableDataEv
FNDA:0,_ZNK3blc7network10client2way13writeableDataEv
FN:170,_ZNK3blc7network10client2way12waitReadCommEi
FNDA:0,_ZNK3blc7network10client2way12waitReadCommEi
FN:174,_ZNK3blc7network10client2way12waitReadDataEi
FNDA:0,_ZNK3blc7network10client2way12waitReadDataEi
FN:178,_ZNK3blc7network10client2way13waitWriteCommEi
FNDA:0,_ZNK3blc7network10client2way13waitWriteCommEi
FN:182,_ZNK3blc7network10client2way13waitWriteDataEi
FNDA:0,_ZNK3blc7network10client2way13waitWriteDataEi
DA:14,0
DA:15,0
DA:17,0
DA:18,0
DA:19,0
DA:21,0
DA:22,0
DA:24,0
DA:25,0
DA:28,0
DA:29,0
DA:32,0
DA:33,0
DA:36,0
DA:37,0
DA:40,0
DA:41,0
DA:44,0
DA:45,0
DA:48,0
DA:49,0
DA:52,0
DA:53,0
DA:56,0
DA:57,0
DA:60,0
DA:61,0
DA:64,0
DA:65,0
DA:68,0
DA:69,0
DA:72,0
DA:73,0
DA:74,0
DA:76,0
DA:77,0
DA:78,0
DA:80,0
DA:81,0
DA:82,0
DA:84,0
DA:85,0
DA:86,0
DA:88,0
DA:89,0
DA:90,0
DA:92,0
DA:93,0
DA:94,0
DA:96,0
DA:97,0
DA:98,0
DA:100,0
DA:101,0
DA:102,0
DA:104,0
DA:105,0
DA:106,0
DA:108,0
DA:109,0
DA:110,0
DA:112,0
DA:113,0
DA:114,0
DA:116,0
DA:117,0
DA:118,0
DA:120,0
DA:121,0
DA:124,0
DA:125,0
DA:128,0
DA:129,0
DA:130,0
DA:132,0
DA:133,0
DA:134,0
DA:136,0
DA:137,0
DA:138,0
DA:139,0
DA:141,0
DA:142,0
DA:143,0
DA:145,0
DA:146,0
DA:147,0
DA:149,0
DA:150,0
DA:151,0
DA:152,0
DA:154,0
DA:155,0
DA:158,0
DA:159,0
DA:162,0
DA:163,0
DA:166,0
DA:167,0
DA:170,0
DA:171,0
DA:174,0
DA:175,0
DA:178,0
DA:179,0
DA:182,0
DA:183,0
end_of_record
TN:
SF:/home/lanath/repo/blc/src/server2way.cpp
FN:44,_ZN3blc7network10server2wayC2Ejj
FNDA:0,_ZN3blc7network10server2wayC2Ejj
FN:44,_ZN3blc7network10server2wayC1Ejj
FNDA:0,_ZN3blc7network10server2wayC1Ejj
FN:45,_ZZN3blc7network10server2wayC4EjjENKUli8sockaddriE_clEiS2_i
FNDA:0,_ZZN3blc7network10server2wayC4EjjENKUli8sockaddriE_clEiS2_i
FN:51,_ZZZN3blc7network10server2wayC4EjjENKUli8sockaddriE_clEiS2_iENKUlRKNS0_6ClientES6_E_clES6_S6_
FNDA:0,_ZZZN3blc7network10server2wayC4EjjENKUli8sockaddriE_clEiS2_iENKUlRKNS0_6ClientES6_E_clES6_S6_
FN:66,_ZN3blc7network10server2wayD2Ev
FNDA:0,_ZN3blc7network10server2wayD2Ev
FN:66,_ZN3blc7network10server2wayD1Ev
FNDA:0,_ZN3blc7network10server2wayD1Ev
FN:73,_ZN3blc7network10server2way7addPipeENS_5tools4pipeE
FNDA:0,_ZN3blc7network10server2way7addPipeENS_5tools4pipeE
FN:78,_ZNK3blc7network10server2way7getPipeEv
FNDA:0,_ZNK3blc7network10server2way7getPipeEv
FN:82,_ZN3blc7network10server2way6getMapEv
FNDA:0,_ZN3blc7network10server2way6getMapEv
FN:87,_ZN3blc7network10server2way7addFuncESt8functionIFvRKNS0_6ClientES5_RKNS_5tools4pipeEEE
FNDA:0,_ZN3blc7network10server2way7addFuncESt8functionIFvRKNS0_6ClientES5_RKNS_5tools4pipeEEE
FN:91,_ZN3blc7network10server2way9parsePipeERKNSt7__cxx1112basic_stringIcSt11char_traitsIcESaIcEEE
FNDA:0,_ZN3blc7network10server2way9parsePipeERKNSt7__cxx1112basic_stringIcSt11char_traitsIcESaIcEEE
FN:96,_ZN3blc7network10server2way5startEv
FNDA:0,_ZN3blc7network10server2way5startEv
FN:100,_ZNK3blc7network10server2way11retrivePipeERKNSt7__cxx1112basic_stringIcSt11char_traitsIcESaIcEEE
FNDA:0,_ZNK3blc7network10server2way11retrivePipeERKNSt7__cxx1112basic_stringIcSt11char_traitsIcESaIcEEE
FN:106,_ZNK3blc7network10server2way11retrivePipeEi
FNDA:0,_ZNK3blc7network10server2way11retrivePipeEi
FN:110,_ZN3blc7network10server2way9getChildsEv
FNDA:0,_ZN3blc7network10server2way9getChildsEv
FN:114,_ZNK3blc7network10server2way4isInEi
FNDA:0,_ZNK3blc7network10server2way4isInEi
FN:120,_ZN3blc7network10server2way12launchThreadEii8sockaddr
FNDA:0,_ZN3blc7network10server2way12launchThreadEii8sockaddr
FN:134,_ZN3blc7network10server2way11runThreadedEv
FNDA:0,_ZN3blc7network10server2way11runThreadedEv
FN:159,_ZN3blc7network10server2way3runEPv
FNDA:0,_ZN3blc7network10server2way3runEPv
DA:44,0
DA:45,0
DA:64,0
DA:44,0
DA:45,0
DA:64,0
DA:45,0
DA:46,0
DA:47,0
DA:48,0
DA:50,0
DA:51,0
DA:52,0
DA:53,0
DA:55,0
DA:56,0
DA:57,0
DA:58,0
DA:59,0
DA:60,0
DA:61,0
DA:62,0
DA:63,0
DA:66,0
DA:67,0
DA:68,0
DA:70,0
DA:66,0
DA:67,0
DA:68,0
DA:70,0
DA:73,0
DA:74,0
DA:75,0
DA:76,0
DA:78,0
DA:79,0
DA:82,0
DA:83,0
DA:87,0
DA:88,0
DA:89,0
DA:91,0
DA:92,0
DA:93,0
DA:94,0
DA:96,0
DA:97,0
DA:100,0
DA:101,0
DA:103,0
DA:106,0
DA:107,0
DA:110,0
DA:111,0
DA:114,0
DA:115,0
DA:116,0
DA:117,0
DA:120,0
DA:122,0
DA:123,0
DA:124,0
DA:125,0
DA:126,0
DA:127,0
DA:129,0
DA:132,0
DA:134,0
DA:135,0
DA:138,0
DA:140,0
DA:141,0
DA:142,0
DA:143,0
DA:144,0
DA:145,0
DA:146,0
DA:147,0
DA:148,0
DA:149,0
DA:150,0
DA:152,0
DA:154,0
DA:156,0
DA:157,0
DA:159,0
DA:161,0
end_of_record
SF:/home/lanath/repo/blc/blc/errorHandle.hpp
FN:32,_ZN3blc5error9exceptionD0Ev
FNDA:0,_ZN3blc5error9exceptionD0Ev
FN:32,_ZN3blc5error9exceptionD2Ev
FNDA:0,_ZN3blc5error9exceptionD2Ev
FN:35,_ZNK3blc5error9exception4whatEv
FNDA:0,_ZNK3blc5error9exception4whatEv
FN:38,_ZNK3blc5error9exception5whereB5cxx11Ev
FNDA:0,_ZNK3blc5error9exception5whereB5cxx11Ev
FN:41,_ZNK3blc5error9exception4whomB5cxx11Ev
FNDA:0,_ZNK3blc5error9exception4whomB5cxx11Ev
FN:44,_ZNK3blc5error9exception4lineEv
FNDA:0,_ZNK3blc5error9exception4lineEv
FN:47,_ZNK3blc5error9exception4whenEv
FNDA:0,_ZNK3blc5error9exception4whenEv
DA:32,0
DA:32,0
DA:35,0
DA:38,0
DA:41,0
DA:44,0
DA:47,0
end_of_record
SF:/home/lanath/repo/blc/blc/client.hpp
end_of_record
TN:
SF:/home/lanath/repo/blc/src/singleServer.cpp
FN:38,_ZN3blc7network12singleServerC1Ej
FNDA:14,_ZN3blc7network12singleServerC1Ej
FN:38,_ZN3blc7network12singleServerC2Ej
FNDA:0,_ZN3blc7network12singleServerC2Ej
FN:42,_ZN3blc7network12singleServerD1Ev
FNDA:14,_ZN3blc7network12singleServerD1Ev
FN:42,_ZN3blc7network12singleServerD2Ev
FNDA:0,_ZN3blc7network12singleServerD2Ev
FN:45,_ZN3blc7network12singleServer3runEPv
FNDA:0,_ZN3blc7network12singleServer3runEPv
FN:49,_ZN3blc7network12singleServer3runERKNS0_6ClientE
FNDA:0,_ZN3blc7network12singleServer3runERKNS0_6ClientE
FN:63,_ZN3blc7network12singleServer3runEv
FNDA:0,_ZN3blc7network12singleServer3runEv
FN:79,_ZN3blc7network12singleServer6handleESt8functionIFvRKNS0_6ClientES5_EE
FNDA:0,_ZN3blc7network12singleServer6handleESt8functionIFvRKNS0_6ClientES5_EE
FN:85,_ZN3blc7network12singleServer6handleESt8functionIFvRKNS0_6ClientEEE
FNDA:0,_ZN3blc7network12singleServer6handleESt8functionIFvRKNS0_6ClientEEE
DA:38,14
DA:39,14
DA:40,14
DA:38,0
DA:39,0
DA:40,0
DA:42,14
DA:43,14
DA:42,0
DA:43,0
DA:45,0
DA:47,0
DA:49,0
DA:50,0
DA:54,0
DA:55,0
DA:56,0
DA:57,0
DA:58,0
DA:59,0
DA:61,0
DA:63,0
DA:64,0
DA:68,0
DA:69,0
DA:70,0
DA:71,0
DA:72,0
DA:73,0
DA:74,0
DA:77,0
DA:79,0
DA:80,0
DA:81,0
DA:82,0
DA:83,0
DA:85,0
DA:86,0
DA:87,0
DA:88,0
DA:89,0
end_of_record
SF:/home/lanath/repo/blc/blc/client.hpp
end_of_record
SF:/home/lanath/repo/blc/blc/errorHandle.hpp
FN:32,_ZN3blc5error9exceptionD0Ev
FNDA:0,_ZN3blc5error9exceptionD0Ev
FN:32,_ZN3blc5error9exceptionD2Ev
FNDA:0,_ZN3blc5error9exceptionD2Ev
FN:35,_ZNK3blc5error9exception4whatEv
FNDA:0,_ZNK3blc5error9exception4whatEv
FN:38,_ZNK3blc5error9exception5whereB5cxx11Ev
FNDA:0,_ZNK3blc5error9exception5whereB5cxx11Ev
FN:41,_ZNK3blc5error9exception4whomB5cxx11Ev
FNDA:0,_ZNK3blc5error9exception4whomB5cxx11Ev
FN:44,_ZNK3blc5error9exception4lineEv
FNDA:0,_ZNK3blc5error9exception4lineEv
FN:47,_ZNK3blc5error9exception4whenEv
FNDA:0,_ZNK3blc5error9exception4whenEv
DA:32,0
DA:32,0
DA:35,0
DA:38,0
DA:41,0
DA:44,0
DA:47,0
end_of_record
TN:
SF:/home/lanath/repo/blc/src/bindTest.cpp
FN:70,_ZN3blc7network10isPortFreeEi
FNDA:70,_ZN3blc7network10isPortFreeEi
FN:84,_ZN3blc7network12findFreePortEv
FNDA:42,_ZN3blc7network12findFreePortEv
DA:70,70
DA:72,70
DA:73,70
DA:74,70
DA:75,70
DA:76,70
DA:77,14
DA:78,14
DA:80,56
DA:81,56
DA:84,42
DA:85,42
DA:87,42
DA:88,0
DA:90,42
end_of_record
TN:
SF:/home/lanath/repo/blc/src/stream.cpp
FN:14,_ZN3blc6streamlsERKNSt7__cxx1112basic_stringIcSt11char_traitsIcESaIcEEE
FNDA:14,_ZN3blc6streamlsERKNSt7__cxx1112basic_stringIcSt11char_traitsIcESaIcEEE
FN:18,_ZN3blc6streamlsEPKc
FNDA:14,_ZN3blc6streamlsEPKc
FN:22,_ZN3blc6streamlsEi
FNDA:14,_ZN3blc6streamlsEi
FN:26,_ZN3blc6streamlsEd
FNDA:14,_ZN3blc6streamlsEd
FN:30,_ZN3blc6streamlsEc
FNDA:14,_ZN3blc6streamlsEc
FN:35,_ZN3blc6streamrsERNSt7__cxx1112basic_stringIcSt11char_traitsIcESaIcEEE
FNDA:14,_ZN3blc6streamrsERNSt7__cxx1112basic_stringIcSt11char_traitsIcESaIcEEE
FN:39,_ZN3blc6streamrsEPc
FNDA:14,_ZN3blc6streamrsEPc
FN:43,_ZN3blc6streamrsEc
FNDA:14,_ZN3blc6streamrsEc
FN:47,_ZN3blc6streamrsERi
FNDA:14,_ZN3blc6streamrsERi
FN:51,_ZN3blc6streamrsERd
FNDA:14,_ZN3blc6streamrsERd
DA:14,14
DA:15,14
DA:18,14
DA:19,14
DA:22,14
DA:23,14
DA:26,14
DA:27,14
DA:30,14
DA:31,14
DA:35,14
DA:36,14
DA:39,14
DA:40,14
DA:43,14
DA:44,14
DA:47,14
DA:48,14
DA:51,14
DA:52,14
end_of_record
TN:
SF:/home/lanath/repo/blc/src/client.cpp
FN:31,_ZN3blc7network6ClientC2Ei8sockaddr
FNDA:14,_ZN3blc7network6ClientC2Ei8sockaddr
DA:31,14
DA:34,14
DA:35,14
DA:36,14
DA:37,14
DA:38,14
DA:39,14
end_of_record
TN:
SF:/home/lanath/repo/blc/src/serializable.cpp
FN:15,_ZL3hexc
FNDA:0,_ZL3hexc
FN:22,_ZL5dehexc
FNDA:0,_ZL5dehexc
FN:32,_ZN3blc5tools12serializable11hexToStringERKNSt7__cxx1112basic_stringIcSt11char_traitsIcESaIcEEE
FNDA:0,_ZN3blc5tools12serializable11hexToStringERKNSt7__cxx1112basic_stringIcSt11char_traitsIcESaIcEEE
FN:46,_ZN3blc5tools12serializable11stringToHexERKNSt7__cxx1112basic_stringIcSt11char_traitsIcESaIcEEE
FNDA:0,_ZN3blc5tools12serializable11stringToHexERKNSt7__cxx1112basic_stringIcSt11char_traitsIcESaIcEEE
FN:61,_ZN3blc5tools12serializable3cutERKNSt7__cxx1112basic_stringIcSt11char_traitsIcESaIcEEEc
FNDA:56,_ZN3blc5tools12serializable3cutERKNSt7__cxx1112basic_stringIcSt11char_traitsIcESaIcEEEc
DA:15,0
DA:16,0
DA:17,0
DA:18,0
DA:19,0
DA:22,0
DA:23,0
DA:24,0
DA:25,0
DA:26,0
DA:27,0
DA:28,0
DA:29,0
DA:32,0
DA:33,0
DA:36,0
DA:37,0
DA:38,0
DA:39,0
DA:40,0
DA:41,0
DA:43,0
DA:46,0
DA:47,0
DA:50,0
DA:51,0
DA:52,0
DA:53,0
DA:54,0
DA:55,0
DA:56,0
DA:58,0
DA:61,56
DA:62,56
DA:63,112
DA:64,112
DA:66,56
DA:67,56
DA:68,28
end_of_record
TN:
SF:/home/lanath/repo/blc/src/fileSize.cpp
FN:14,_ZN3blc5tools8fileSizeERSt14basic_ifstreamIcSt11char_traitsIcEE
FNDA:0,_ZN3blc5tools8fileSizeERSt14basic_ifstreamIcSt11char_traitsIcEE
FN:24,_Z8fileSizeRSt14basic_ifstreamIcSt11char_traitsIcEESt4fposI11__mbstate_tESt12_Ios_Seekdir
FNDA:0,_Z8fileSizeRSt14basic_ifstreamIcSt11char_traitsIcEESt4fposI11__mbstate_tESt12_Ios_Seekdir
FN:34,_ZN3blc5tools8fileSizeERSi
FNDA:0,_ZN3blc5tools8fileSizeERSi
FN:42,_Z8fileSizeRSiSt4fposI11__mbstate_tESt12_Ios_Seekdir
FNDA:0,_Z8fileSizeRSiSt4fposI11__mbstate_tESt12_Ios_Seekdir
FN:50,_ZN3blc5tools8fileSizeERKNSt7__cxx1112basic_stringIcSt11char_traitsIcESaIcEEE
FNDA:0,_ZN3blc5tools8fileSizeERKNSt7__cxx1112basic_stringIcSt11char_traitsIcESaIcEEE
DA:14,0
DA:15,0
DA:16,0
DA:17,0
DA:18,0
DA:19,0
DA:21,0
DA:24,0
DA:25,0
DA:26,0
DA:27,0
DA:28,0
DA:29,0
DA:31,0
DA:34,0
DA:35,0
DA:36,0
DA:37,0
DA:39,0
DA:42,0
DA:43,0
DA:44,0
DA:45,0
DA:47,0
DA:50,0
DA:51,0
DA:53,0
DA:54,0
DA:55,0
DA:56,0
DA:57,0
DA:59,0
DA:61,0
end_of_record
TN:
SF:/home/lanath/repo/blc/src/errorHandle.cpp
FN:16,_ZN3blc5error9exceptionC2ENSt7__cxx1112basic_stringIcSt11char_traitsIcESaIcEEE
FNDA:42,_ZN3blc5error9exceptionC2ENSt7__cxx1112basic_stringIcSt11char_traitsIcESaIcEEE
FN:23,_ZN3blc5error9exceptionC2ENSt7__cxx1112basic_stringIcSt11char_traitsIcESaIcEEES7_S7_il
FNDA:14,_ZN3blc5error9exceptionC2ENSt7__cxx1112basic_stringIcSt11char_traitsIcESaIcEEES7_S7_il
DA:16,42
DA:17,42
DA:19,42
DA:20,42
DA:21,42
DA:23,14
DA:27,14
DA:28,14
DA:30,14
DA:31,14
DA:32,14
end_of_record
SF:/home/lanath/repo/blc/blc/errorHandle.hpp
FN:32,_ZN3blc5error9exceptionD0Ev
FNDA:0,_ZN3blc5error9exceptionD0Ev
FN:32,_ZN3blc5error9exceptionD2Ev
FNDA:0,_ZN3blc5error9exceptionD2Ev
FN:35,_ZNK3blc5error9exception4whatEv
FNDA:0,_ZNK3blc5error9exception4whatEv
FN:38,_ZNK3blc5error9exception5whereB5cxx11Ev
FNDA:0,_ZNK3blc5error9exception5whereB5cxx11Ev
FN:41,_ZNK3blc5error9exception4whomB5cxx11Ev
FNDA:0,_ZNK3blc5error9exception4whomB5cxx11Ev
FN:44,_ZNK3blc5error9exception4lineEv
FNDA:0,_ZNK3blc5error9exception4lineEv
FN:47,_ZNK3blc5error9exception4whenEv
FNDA:0,_ZNK3blc5error9exception4whenEv
DA:32,0
DA:32,0
DA:35,0
DA:38,0
DA:41,0
DA:44,0
DA:47,0
end_of_record
TN:
SF:/home/lanath/repo/blc/src/cinReadable.cpp
FN:17,_ZN3blc5tools11cinReadableEv
FNDA:14,_ZN3blc5tools11cinReadableEv
FN:21,_ZN3blc5tools8readableERSi
FNDA:28,_ZN3blc5tools8readableERSi
DA:17,14
DA:18,14
DA:21,28
DA:22,28
end_of_record
TN:
SF:/home/lanath/repo/blc/src/socket.cpp
FN:72,_ZN3blc7network6SocketC2Ev
FNDA:28,_ZN3blc7network6SocketC2Ev
FN:75,_ZN3blc7network6SocketC2ENSt7__cxx1112basic_stringIcSt11char_traitsIcESaIcEEEibii
FNDA:28,_ZN3blc7network6SocketC2ENSt7__cxx1112basic_stringIcSt11char_traitsIcESaIcEEEibii
FN:84,_ZN3blc7network6SocketD2Ev
FNDA:56,_ZN3blc7network6SocketD2Ev
FN:89,_ZN3blc7network6Socket10setAddressERKNSt7__cxx1112basic_stringIcSt11char_traitsIcESaIcEEE
FNDA:14,_ZN3blc7network6Socket10setAddressERKNSt7__cxx1112basic_stringIcSt11char_traitsIcESaIcEEE
FN:93,_ZN3blc7network6Socket7setPortEi
FNDA:14,_ZN3blc7network6Socket7setPortEi
FN:97,_ZN3blc7network6Socket8setBlockEb
FNDA:42,_ZN3blc7network6Socket8setBlockEb
FN:113,_ZN3blc7network6Socket7setModeEi
FNDA:14,_ZN3blc7network6Socket7setModeEi
FN:117,_ZN3blc7network6Socket7setTypeEi
FNDA:14,_ZN3blc7network6Socket7setTypeEi
FN:121,_ZNK3blc7network6Socket10getAddressB5cxx11Ev
FNDA:14,_ZNK3blc7network6Socket10getAddressB5cxx11Ev
FN:125,_ZNK3blc7network6Socket7getPortEv
FNDA:14,_ZNK3blc7network6Socket7getPortEv
FN:129,_ZNK3blc7network6Socket8getBlockEv
FNDA:42,_ZNK3blc7network6Socket8getBlockEv
FN:133,_ZNK3blc7network6Socket7getModeEv
FNDA:14,_ZNK3blc7network6Socket7getModeEv
FN:137,_ZNK3blc7network6Socket7getTypeEv
FNDA:14,_ZNK3blc7network6Socket7getTypeEv
FN:141,_ZN3blc7network6Socket4openEv
FNDA:42,_ZN3blc7network6Socket4openEv
FN:175,_ZN3blc7network6Socket5closeEv
FNDA:28,_ZN3blc7network6Socket5closeEv
FN:182,_ZNK3blc7network6Socket6isOpenEv
FNDA:28,_ZNK3blc7network6Socket6isOpenEv
FN:186,_ZNK3blc7network6Socket8isClosedEv
FNDA:28,_ZNK3blc7network6Socket8isClosedEv
FN:190,_ZNK3blc7network6Socket5writeERKNSt7__cxx1112basic_stringIcSt11char_traitsIcESaIcEEE
FNDA:98,_ZNK3blc7network6Socket5writeERKNSt7__cxx1112basic_stringIcSt11char_traitsIcESaIcEEE
FN:197,_ZNK3blc7network6Socket4readB5cxx11Ev
FNDA:98,_ZNK3blc7network6Socket4readB5cxx11Ev
FN:212,_ZNK3blc7network6Socket4readB5cxx11Ei
FNDA:14,_ZNK3blc7network6Socket4readB5cxx11Ei
FN:223,_ZNK3blc7network6Socket8readableEv
FNDA:42,_ZNK3blc7network6Socket8readableEv
FN:241,_ZNK3blc7network6Socket8writableEv
FNDA:28,_ZNK3blc7network6Socket8writableEv
FN:252,_ZNK3blc7network6Socket8waitReadEj
FNDA:28,_ZNK3blc7network6Socket8waitReadEj
FN:269,_ZNK3blc7network6Socket9waitWriteEj
FNDA:14,_ZNK3blc7network6Socket9waitWriteEj
FN:286,_ZN3blc7network6SocketlsERKNSt7__cxx1112basic_stringIcSt11char_traitsIcESaIcEEE
FNDA:98,_ZN3blc7network6SocketlsERKNSt7__cxx1112basic_stringIcSt11char_traitsIcESaIcEEE
FN:291,_ZN3blc7network6SocketrsERNSt7__cxx1112basic_stringIcSt11char_traitsIcESaIcEEE
FNDA:14,_ZN3blc7network6SocketrsERNSt7__cxx1112basic_stringIcSt11char_traitsIcESaIcEEE
FN:296,_ZlsRSoRN3blc7network6SocketE
FNDA:14,_ZlsRSoRN3blc7network6SocketE
DA:72,28
DA:73,28
DA:75,28
DA:81,28
DA:82,28
DA:84,56
DA:85,56
DA:86,0
DA:87,56
DA:89,14
DA:90,14
DA:91,14
DA:93,14
DA:94,14
DA:95,14
DA:97,42
DA:100,42
DA:102,42
DA:109,42
DA:110,0
DA:111,42
DA:113,14
DA:114,14
DA:115,14
DA:117,14
DA:118,14
DA:119,14
DA:121,14
DA:122,14
DA:125,14
DA:126,14
DA:129,42
DA:130,42
DA:133,14
DA:134,14
DA:137,14
DA:138,14
DA:141,42
DA:144,42
DA:145,14
DA:146,28
DA:147,0
DA:148,28
DA:149,28
DA:150,0
DA:155,28
DA:156,28
DA:157,28
DA:158,28
DA:161,14
DA:162,14
DA:163,0
DA:164,0
DA:165,0
DA:166,0
DA:169,14
DA:170,0
DA:171,14
DA:172,14
DA:175,28
DA:176,28
DA:177,28
DA:178,28
DA:179,28
DA:180,28
DA:182,28
DA:183,28
DA:186,28
DA:187,28
DA:190,98
DA:191,98
DA:192,14
DA:193,84
DA:194,0
DA:197,98
DA:198,196
DA:202,98
DA:203,14
DA:204,280
DA:205,266
DA:207,196
DA:209,168
DA:212,14
DA:213,0
DA:214,14
DA:217,14
DA:218,0
DA:219,14
DA:220,42
DA:223,42
DA:225,42
DA:228,42
DA:229,0
DA:230,42
DA:231,42
DA:232,42
DA:233,14
DA:234,28
DA:235,14
DA:236,14
DA:238,14
DA:241,28
DA:243,28
DA:245,28
DA:246,28
DA:247,28
DA:248,0
DA:249,28
DA:252,28
DA:259,28
DA:262,28
DA:263,28
DA:264,28
DA:265,14
DA:266,14
DA:269,14
DA:276,14
DA:279,14
DA:280,14
DA:281,14
DA:282,0
DA:283,14
DA:286,98
DA:287,98
DA:288,98
DA:291,14
DA:292,14
DA:293,14
DA:296,14
DA:297,14
DA:298,14
end_of_record
SF:/home/lanath/repo/blc/blc/stream.hpp
FN:20,_ZN3blc6streamC2Ev
FNDA:0,_ZN3blc6streamC2Ev
DA:20,0
end_of_record
SF:/home/lanath/repo/blc/blc/errorHandle.hpp
FN:32,_ZN3blc5error9exceptionD0Ev
FNDA:0,_ZN3blc5error9exceptionD0Ev
FN:32,_ZN3blc5error9exceptionD2Ev
FNDA:0,_ZN3blc5error9exceptionD2Ev
FN:35,_ZNK3blc5error9exception4whatEv
FNDA:0,_ZNK3blc5error9exception4whatEv
FN:38,_ZNK3blc5error9exception5whereB5cxx11Ev
FNDA:0,_ZNK3blc5error9exception5whereB5cxx11Ev
FN:41,_ZNK3blc5error9exception4whomB5cxx11Ev
FNDA:0,_ZNK3blc5error9exception4whomB5cxx11Ev
FN:44,_ZNK3blc5error9exception4lineEv
FNDA:0,_ZNK3blc5error9exception4lineEv
FN:47,_ZNK3blc5error9exception4whenEv
FNDA:0,_ZNK3blc5error9exception4whenEv
DA:32,0
DA:32,0
DA:35,0
DA:38,0
DA:41,0
DA:44,0
DA:47,0
end_of_record
TN:
SF:/home/lanath/repo/blc/src/stringOp.cpp
FN:14,_ZN3blc5tools8isNumberERKNSt7__cxx1112basic_stringIcSt11char_traitsIcESaIcEEE
FNDA:42,_ZN3blc5tools8isNumberERKNSt7__cxx1112basic_stringIcSt11char_traitsIcESaIcEEE
FN:26,_ZN3blc5tools3cutENSt7__cxx1112basic_stringIcSt11char_traitsIcESaIcEEEc
FNDA:28,_ZN3blc5tools3cutENSt7__cxx1112basic_stringIcSt11char_traitsIcESaIcEEEc
FN:36,_ZN3blc5tools3cutERKNSt7__cxx1112basic_stringIcSt11char_traitsIcESaIcEEES6_b
FNDA:14,_ZN3blc5tools3cutERKNSt7__cxx1112basic_stringIcSt11char_traitsIcESaIcEEES6_b
DA:14,42
DA:15,42
DA:16,14
DA:17,84
DA:18,70
DA:19,14
DA:20,14
DA:23,14
DA:26,28
DA:27,56
DA:29,56
DA:30,28
DA:31,28
DA:33,56
DA:36,14
DA:37,14
end_of_record
TN:
SF:/home/lanath/repo/blc/src/pipeCluster.cpp
FN:14,_ZNK3blc5tools11pipeCluster10getClusterEv
FNDA:0,_ZNK3blc5tools11pipeCluster10getClusterEv
FN:18,_ZN3blc5tools11pipeCluster10setClusterERKSt6vectorINS0_4pipeESaIS3_EE
FNDA:0,_ZN3blc5tools11pipeCluster10setClusterERKSt6vectorINS0_4pipeESaIS3_EE
FN:22,_ZN3blc5tools11pipeCluster8pushBackERKNS0_4pipeE
FNDA:0,_ZN3blc5tools11pipeCluster8pushBackERKNS0_4pipeE
FN:26,_ZN3blc5tools11pipeCluster10writeToAllERKNSt7__cxx1112basic_stringIcSt11char_traitsIcESaIcEEE
FNDA:0,_ZN3blc5tools11pipeCluster10writeToAllERKNSt7__cxx1112basic_stringIcSt11char_traitsIcESaIcEEE
FN:33,_ZN3blc5tools11pipeClusterixEi
FNDA:0,_ZN3blc5tools11pipeClusterixEi
DA:14,0
DA:15,0
DA:18,0
DA:19,0
DA:20,0
DA:22,0
DA:23,0
DA:24,0
DA:26,0
DA:27,0
DA:28,0
DA:30,0
DA:33,0
DA:34,0
end_of_record
TN:
SF:/home/lanath/repo/blc/src/nonCopyable.cpp
FN:14,_ZN3blc7symbole11nonCopyableC2Ev
FNDA:84,_ZN3blc7symbole11nonCopyableC2Ev
FN:17,_ZN3blc7symbole11nonCopyableC2ERKS1_
FNDA:0,_ZN3blc7symbole11nonCopyableC2ERKS1_
FN:21,_ZN3blc7symbole11nonCopyableaSERKS1_
FNDA:0,_ZN3blc7symbole11nonCopyableaSERKS1_
DA:14,84
DA:15,84
DA:17,0
DA:19,0
DA:21,0
DA:24,0
end_of_record
